; Function Attrs: mustprogress uwtable
define noundef signext i8 @ucol_greater_75(ptr noundef %coll, ptr noundef %source, i32 noundef %sourceLength, ptr noundef %target, i32 noundef %targetLength) local_unnamed_addr #0 {
entry:
  %status.i = alloca i32, align 4
  call void @llvm.lifetime.start.p0(i64 4, ptr nonnull %status.i)
  store i32 0, ptr %status.i, align 4
  %vtable.i = load ptr, ptr %coll, align 8
  %vfn.i = getelementptr inbounds i8, ptr %vtable.i, i64 88
  %0 = load ptr, ptr %vfn.i, align 8
  %call1.i = call noundef i32 %0(ptr noundef nonnull align 8 dereferenceable(8) %coll, ptr noundef %source, i32 noundef %sourceLength, ptr noundef %target, i32 noundef %targetLength, ptr noundef nonnull align 4 dereferenceable(4) %status.i)
  call void @llvm.lifetime.end.p0(i64 4, ptr nonnull %status.i)
  %cmp = icmp eq i32 %call1.i, 1
  %conv = zext i1 %cmp to i8
  ret i8 %conv
}